; Function Attrs: mustprogress nofree norecurse nosync nounwind willreturn memory(none) uwtable
define hidden noundef zeroext i1 @_ZN19OpenColorIO_v2_5dev10IsNotSpaceEc(i8 noundef signext %0) local_unnamed_addr #4 {
_ZN19OpenColorIO_v2_5dev7IsSpaceEc.exit:
  %1 = icmp ugt i8 %0, 32
  %switch.cast = zext nneg i8 %0 to i33
  %switch.downshift = lshr i33 4294951423, %switch.cast
  %switch.masked = trunc i33 %switch.downshift to i1
  %2 = select i1 %1, i1 true, i1 %switch.masked
  ret i1 %2
}